(ikeras_frcnn.config
Config
p0
(dp1
S'use_vertical_flips'
p2
I00
sS'rpn_max_overlap'
p3
F0.7
sS'verbose'
p4
I01
sS'num_rois'
p5
I128
sS'img_channel_mean'
p6
(lp7
F103.939
aF116.779
aF123.68
asS'anchor_box_scales'
p8
(lp9
I128
aI256
aI512
asS'anchor_box_ratios'
p10
(lp11
(lp12
I1
aI1
aa(lp13
I1
aI2
aa(lp14
I2
aI1
aasS'rpn_min_overlap'
p15
F0.3
sS'rot_90'
p16
I00
sS'classifier_min_overlap'
p17
F0.1
sS'im_size'
p18
I600
sS'class_mapping'
p19
(dp20
S'sheep'
p21
I5
sS'horse'
p22
I15
sS'bg'
p23
I20
sS'bicycle'
p24
I17
sS'motorbike'
p25
I16
sS'cow'
p26
I12
sS'sofa'
p27
I14
sS'car'
p28
I1
sS'aeroplane'
p29
I19
sS'dog'
p30
I0
sS'cat'
p31
I10
sS'person'
p32
I6
sS'train'
p33
I4
sS'boat'
p34
I18
sS'bottle'
p35
I8
sS'bus'
p36
I11
sS'pottedplant'
p37
I2
sS'tvmonitor'
p38
I7
sS'chair'
p39
I9
sS'bird'
p40
I3
sS'diningtable'
p41
I13
ssS'img_scaling_factor'
p42
F1.0
sS'base_net_weights'
p43
S'model_frcnn.tf.3.hdf5'
p44
sS'classifier_regr_std'
p45
(lp46
F8.0
aF8.0
aF4.0
aF4.0
asS'model_path'
p47
S'./model_frcnn.hdf5'
p48
sS'classifier_max_overlap'
p49
F0.5
sS'std_scaling'
p50
F4.0
sS'use_horizontal_flips'
p51
I01
sS'rpn_stride'
p52
I16
sS'balanced_classes'
p53
I00
sb.